target datalayout = "e-m:e-p270:32:32-p271:32:32-p272:64:64-i64:64-i128:128-f80:128-n8:16:32:64-S128"
target triple = "x86_64-pc-linux-gnu"

%"class.ade::MemoryAccessor" = type { %"class.std::vector", %"struct.ade::util::DynMdView", %"class.std::__cxx11::list", %"class.std::function" }
%"class.std::vector" = type { %"struct.std::_Vector_base" }
%"struct.std::_Vector_base" = type { %"struct.std::_Vector_base<ade::IMemoryAccessListener *, std::allocator<ade::IMemoryAccessListener *>>::_Vector_impl" }
%"struct.std::_Vector_base<ade::IMemoryAccessListener *, std::allocator<ade::IMemoryAccessListener *>>::_Vector_impl" = type { %"struct.std::_Vector_base<ade::IMemoryAccessListener *, std::allocator<ade::IMemoryAccessListener *>>::_Vector_impl_data" }
%"struct.std::_Vector_base<ade::IMemoryAccessListener *, std::allocator<ade::IMemoryAccessListener *>>::_Vector_impl_data" = type { ptr, ptr, ptr }
%"struct.ade::util::DynMdView" = type { %"struct.std::array", i64, %"struct.ade::util::MemoryRange" }
%"struct.std::array" = type { [6 x %"struct.ade::util::SliceDimension"] }
%"struct.ade::util::SliceDimension" = type { i32, i32 }
%"struct.ade::util::MemoryRange" = type { ptr, i64 }
%"class.std::__cxx11::list" = type { %"class.std::__cxx11::_List_base" }
%"class.std::__cxx11::_List_base" = type { %"struct.std::__cxx11::_List_base<ade::MemoryAccessor::SavedHandles, std::allocator<ade::MemoryAccessor::SavedHandles>>::_List_impl" }
%"struct.std::__cxx11::_List_base<ade::MemoryAccessor::SavedHandles, std::allocator<ade::MemoryAccessor::SavedHandles>>::_List_impl" = type { %"struct.std::__detail::_List_node_header" }
%"struct.std::__detail::_List_node_header" = type { %"struct.std::__detail::_List_node_base", i64 }
%"struct.std::__detail::_List_node_base" = type { ptr, ptr }
%"class.std::function" = type { %"class.std::_Function_base", ptr }
%"class.std::_Function_base" = type { %"union.std::_Any_data", ptr }
%"union.std::_Any_data" = type { %"union.std::_Nocopy_types" }
%"union.std::_Nocopy_types" = type { { i64, i64 } }

; Function Attrs: noinline noreturn nounwind uwtable
define linkonce_odr hidden void @__clang_call_terminate(ptr noundef %0) #2 comdat {
  %2 = call ptr @__cxa_begin_catch(ptr %0) #13
  call void @_ZSt9terminatev() #14
  unreachable
}

; Function Attrs: mustprogress nounwind uwtable
define linkonce_odr hidden noundef zeroext i1 @_ZNKSt14_Function_base8_M_emptyEv(ptr noundef nonnull align 8 dereferenceable(24) %0) #0 comdat align 2 {
  %2 = alloca ptr, align 8
  store ptr %0, ptr %2, align 8, !tbaa !44
  %3 = load ptr, ptr %2, align 8
  %4 = getelementptr inbounds nuw %"class.std::_Function_base", ptr %3, i32 0, i32 1
  %5 = load ptr, ptr %4, align 8, !tbaa !46
  %6 = icmp ne ptr %5, null
  %7 = xor i1 %6, true
  ret i1 %7
}

; Function Attrs: mustprogress uwtable
define linkonce_odr hidden void @_ZNKSt8functionIFvPKcEEclES1_(ptr noundef nonnull align 8 dereferenceable(32) %0, ptr noundef %1) #1 comdat align 2 {
  %3 = alloca ptr, align 8
  %4 = alloca ptr, align 8
  store ptr %0, ptr %3, align 8, !tbaa !19
  store ptr %1, ptr %4, align 8, !tbaa !33
  %5 = load ptr, ptr %3, align 8
  %6 = call noundef zeroext i1 @_ZNKSt14_Function_base8_M_emptyEv(ptr noundef nonnull align 8 dereferenceable(24) %5)
  br i1 %6, label %7, label %8

7:                                                ; preds = %2
  call void @_ZSt25__throw_bad_function_callv() #15
  unreachable

8:                                                ; preds = %2
  %9 = getelementptr inbounds nuw %"class.std::function", ptr %5, i32 0, i32 1
  %10 = load ptr, ptr %9, align 8, !tbaa !21
  %11 = getelementptr inbounds nuw %"class.std::_Function_base", ptr %5, i32 0, i32 0
  call void %10(ptr noundef nonnull align 8 dereferenceable(16) %11, ptr noundef nonnull align 8 dereferenceable(8) %4)
  ret void
}

; Function Attrs: mustprogress nounwind uwtable
define linkonce_odr hidden noundef zeroext i1 @_ZNKSt8functionIFvPKcEEcvbEv(ptr noundef nonnull align 8 dereferenceable(32) %0) #0 comdat align 2 personality ptr @__gxx_personality_v0 {
  %2 = alloca ptr, align 8
  store ptr %0, ptr %2, align 8, !tbaa !19
  %3 = load ptr, ptr %2, align 8
  %4 = invoke noundef zeroext i1 @_ZNKSt14_Function_base8_M_emptyEv(ptr noundef nonnull align 8 dereferenceable(24) %3)
          to label %5 unwind label %7

5:                                                ; preds = %1
  %6 = xor i1 %4, true
  ret i1 %6

7:                                                ; preds = %1
  %8 = landingpad { ptr, i32 }
          catch ptr null
  %9 = extractvalue { ptr, i32 } %8, 0
  call void @__clang_call_terminate(ptr %9) #14
  unreachable
}

; Function Attrs: mustprogress uwtable
define hidden void @_ZN3ade14MemoryAccessor7onErrorEPKc(ptr noundef nonnull align 8 dereferenceable(152) %0, ptr noundef %1) #1 align 2 {
  %3 = alloca ptr, align 8
  %4 = alloca ptr, align 8
  %5 = alloca i8, align 1
  store ptr %0, ptr %3, align 8, !tbaa !3
  store ptr %1, ptr %4, align 8, !tbaa !33
  %6 = load ptr, ptr %3, align 8
  br label %7

7:                                                ; preds = %2
  call void @llvm.lifetime.start.p0(i64 1, ptr %5) #13
  store i8 0, ptr %5, align 1, !tbaa !24
  call void @llvm.lifetime.end.p0(i64 1, ptr %5) #13
  br label %8

8:                                                ; preds = %7
  %9 = getelementptr inbounds nuw %"class.ade::MemoryAccessor", ptr %6, i32 0, i32 3
  %10 = call noundef zeroext i1 @_ZNKSt8functionIFvPKcEEcvbEv(ptr noundef nonnull align 8 dereferenceable(32) %9) #13
  br i1 %10, label %11, label %14

11:                                               ; preds = %8
  %12 = getelementptr inbounds nuw %"class.ade::MemoryAccessor", ptr %6, i32 0, i32 3
  %13 = load ptr, ptr %4, align 8, !tbaa !33
  call void @_ZNKSt8functionIFvPKcEEclES1_(ptr noundef nonnull align 8 dereferenceable(32) %12, ptr noundef %13)
  br label %14

14:                                               ; preds = %11, %8
  ret void
}