; Function Attrs: mustprogress uwtable
define hidden void @_ZN3ade14MemoryAccessor7onErrorEPKc(ptr noundef nonnull align 8 dereferenceable(152) %0, ptr noundef %1) local_unnamed_addr #2 align 2 personality ptr @__gxx_personality_v0 {
  %3 = alloca ptr, align 8
  %4 = getelementptr inbounds nuw i8, ptr %0, i64 136
  %5 = load ptr, ptr %4, align 8, !tbaa !10
  %.not.i.i.not = icmp eq ptr %5, null
  br i1 %.not.i.i.not, label %9, label %_ZNKSt8functionIFvPKcEEclES1_.exit

_ZNKSt8functionIFvPKcEEclES1_.exit:               ; preds = %2
  %6 = getelementptr inbounds nuw i8, ptr %0, i64 120
  call void @llvm.lifetime.start.p0(i64 8, ptr nonnull %3)
  store ptr %1, ptr %3, align 8, !tbaa !12
  %7 = getelementptr inbounds nuw i8, ptr %0, i64 144
  %8 = load ptr, ptr %7, align 8, !tbaa !14
  call void %8(ptr noundef nonnull align 8 dereferenceable(32) %6, ptr noundef nonnull align 8 dereferenceable(8) %3)
  call void @llvm.lifetime.end.p0(i64 8, ptr nonnull %3)
  br label %9

9:                                                ; preds = %_ZNKSt8functionIFvPKcEEclES1_.exit, %2
  ret void
}